target datalayout = "e-m:e-p270:32:32-p271:32:32-p272:64:64-i64:64-i128:128-f80:128-n8:16:32:64-S128"
target triple = "x86_64-pc-linux-gnu"

%struct._zval_struct = type { %union._zend_value, %union.anon.3, %union.anon.6 }
%union._zend_value = type { i64 }
%union.anon.3 = type { i32 }
%union.anon.6 = type { i32 }
%struct._zend_array = type { %struct._zend_refcounted_h, %union.anon.0, i32, %union.anon.1, i32, i32, i32, i32, i64, ptr }
%struct._zend_refcounted_h = type { i32, %union.anon }
%union.anon = type { i32 }
%union.anon.0 = type { i32 }
%union.anon.1 = type { ptr }
%struct._zend_pcre_globals = type { %struct._zend_array, i64, i64, i8, i32, %struct._zval_struct, %struct._zval_struct, ptr }

@pcre_globals = dso_local global %struct._zend_pcre_globals zeroinitializer, align 8

; Function Attrs: nounwind uwtable
define internal void @pcre_handle_exec_error(i32 noundef %0) #0 {
  %2 = alloca i32, align 4
  %3 = alloca i32, align 4
  store i32 %0, ptr %2, align 4, !tbaa !13
  call void @llvm.lifetime.start.p0(i64 4, ptr %3) #17
  store i32 0, ptr %3, align 4, !tbaa !13
  %4 = load i32, ptr %2, align 4, !tbaa !13
  switch i32 %4, label %9 [
    i32 -47, label %5
    i32 -53, label %6
    i32 -36, label %7
    i32 -46, label %8
  ]

5:                                                ; preds = %1
  store i32 2, ptr %3, align 4, !tbaa !13
  br label %18

6:                                                ; preds = %1
  store i32 3, ptr %3, align 4, !tbaa !13
  br label %18

7:                                                ; preds = %1
  store i32 5, ptr %3, align 4, !tbaa !13
  br label %18

8:                                                ; preds = %1
  store i32 6, ptr %3, align 4, !tbaa !13
  br label %18

9:                                                ; preds = %1
  %10 = load i32, ptr %2, align 4, !tbaa !13
  %11 = icmp sle i32 %10, -3
  br i1 %11, label %12, label %16

12:                                               ; preds = %9
  %13 = load i32, ptr %2, align 4, !tbaa !13
  %14 = icmp sge i32 %13, -23
  br i1 %14, label %15, label %16

15:                                               ; preds = %12
  store i32 4, ptr %3, align 4, !tbaa !13
  br label %17

16:                                               ; preds = %12, %9
  store i32 1, ptr %3, align 4, !tbaa !13
  br label %17

17:                                               ; preds = %16, %15
  br label %18

18:                                               ; preds = %17, %8, %7, %6, %5
  %19 = load i32, ptr %3, align 4, !tbaa !13
  store i32 %19, ptr getelementptr inbounds nuw (%struct._zend_pcre_globals, ptr @pcre_globals, i32 0, i32 4), align 4, !tbaa !66
  call void @llvm.lifetime.end.p0(i64 4, ptr %3) #17
  ret void
}