; Function Attrs: mustprogress nofree norecurse nosync nounwind willreturn memory(write, argmem: none, inaccessiblemem: none) uwtable
define internal fastcc void @pcre_handle_exec_error(i32 noundef %0) unnamed_addr #4 {
  switch i32 %0, label %5 [
    i32 -47, label %7
    i32 -53, label %2
    i32 -36, label %3
    i32 -46, label %4
  ]

2:                                                ; preds = %1
  br label %7

3:                                                ; preds = %1
  br label %7

4:                                                ; preds = %1
  br label %7

5:                                                ; preds = %1
  %6 = add i32 %0, 23
  %or.cond = icmp ult i32 %6, 21
  %. = select i1 %or.cond, i32 4, i32 1
  br label %7

7:                                                ; preds = %5, %1, %4, %3, %2
  %.0 = phi i32 [ 6, %4 ], [ 5, %3 ], [ 3, %2 ], [ 2, %1 ], [ %., %5 ]
  store i32 %.0, ptr getelementptr inbounds nuw (i8, ptr @pcre_globals, i64 76), align 4, !tbaa !18
  ret void
}